; Function Attrs: nounwind sspstrong uwtable
define internal range(i64 1, 4294967296) i64 @proc_getsid(i32 noundef %0, ptr noundef readonly captures(none) %1, i64 %2) #1 {
  %or.cond.not = icmp ult i32 %0, 2
  br i1 %or.cond.not, label %rb_check_arity.exit, label %4

4:                                                ; preds = %3
  tail call void @rb_error_arity(i32 noundef %0, i32 noundef 0, i32 noundef 1) #29
  unreachable

rb_check_arity.exit:                              ; preds = %3
  %5 = icmp eq i32 %0, 1
  br i1 %5, label %6, label %16

6:                                                ; preds = %rb_check_arity.exit
  %7 = load i64, ptr %1, align 8, !tbaa !43
  %8 = icmp eq i64 %7, 4
  br i1 %8, label %16, label %9

9:                                                ; preds = %6
  %10 = and i64 %7, 1
  %.not.i = icmp eq i64 %10, 0
  br i1 %.not.i, label %13, label %11

11:                                               ; preds = %9
  %12 = tail call i64 @rb_fix2int(i64 noundef %7) #27
  br label %rb_num2int_inline.exit

13:                                               ; preds = %9
  %14 = tail call i64 @rb_num2int(i64 noundef %7) #27
  br label %rb_num2int_inline.exit

rb_num2int_inline.exit:                           ; preds = %11, %13
  %.0.i = phi i64 [ %12, %11 ], [ %14, %13 ]
  %15 = trunc i64 %.0.i to i32
  br label %16

16:                                               ; preds = %rb_num2int_inline.exit, %6, %rb_check_arity.exit
  %.0 = phi i32 [ 0, %6 ], [ %15, %rb_num2int_inline.exit ], [ 0, %rb_check_arity.exit ]
  %17 = tail call i32 @getsid(i32 noundef %.0) #27
  %18 = icmp slt i32 %17, 0
  br i1 %18, label %19, label %22

19:                                               ; preds = %16
  %20 = tail call ptr @rb_errno_ptr() #27
  %21 = load i32, ptr %20, align 4, !tbaa !60
  tail call void @rb_syserr_fail(i32 noundef %21, ptr noundef null) #29
  unreachable

22:                                               ; preds = %16
  %23 = shl nuw i32 %17, 1
  %24 = or disjoint i32 %23, 1
  %25 = zext i32 %24 to i64
  ret i64 %25
}